{
   <insert_a_suppression_name_here>
   Memcheck:Cond
   fun:index
   fun:expand_dynamic_string_token
   fun:_dl_map_object
   fun:map_doit
   fun:_dl_catch_error
   fun:do_preload
   fun:dl_main
   fun:_dl_sysdep_start
   fun:_dl_start
   obj:/lib/ld-2.11.1.so
}
{
   <insert_a_suppression_name_here>
   Memcheck:Cond
   fun:_dl_relocate_object
   fun:dl_main
   fun:_dl_sysdep_start
   fun:_dl_start
   obj:/lib/ld-2.11.1.so
}
{
   <insert_a_suppression_name_here>
   Memcheck:Cond
   fun:__GI_strlen
   fun:getenv
   fun:_ZN5boost7runtime11environment13rt_env_detail12sys_read_varENS_9unit_test13basic_cstringIKcEE
   fun:_ZN5boost7runtime11environment13rt_env_detail12init_new_varINS_9unit_test13output_formatENS_3nfp15named_parameterIcNS6_10nfp_detail16no_params_type_tEcEEEERNS2_13variable_dataENS4_13basic_cstringIKcEET0_
   fun:_ZN5boost7runtime11environment3varINS_9unit_test13output_formatEEENS1_8variableIT_EENS3_13basic_cstringIKcEE
   fun:_ZN5boost7runtime11environment3getINS_9unit_test13output_formatEEEvNS3_13basic_cstringIKcEERNS_8optionalIT_EE
   fun:_ZN5boost9unit_test14runtime_config12_GLOBAL__N_118retrieve_parameterINS0_13output_formatEEET_NS0_13basic_cstringIKcEERKNS_7runtime3cla6parserERKS5_SF_
   fun:_ZN5boost9unit_test14runtime_config4initERiPPc
   fun:_ZN5boost9unit_test9framework4initEPFPNS0_10test_suiteEiPPcEiS5_
   fun:_ZN5boost9unit_test14unit_test_mainEPFPNS0_10test_suiteEiPPcEiS4_
   fun:main
}
{
   <insert_a_suppression_name_here>
   Memcheck:Addr8
   fun:__GI_strlen
   fun:getenv
   fun:_ZN5boost7runtime11environment13rt_env_detail12sys_read_varENS_9unit_test13basic_cstringIKcEE
   fun:_ZN5boost7runtime11environment13rt_env_detail12init_new_varINS_9unit_test13output_formatENS_3nfp15named_parameterIcNS6_10nfp_detail16no_params_type_tEcEEEERNS2_13variable_dataENS4_13basic_cstringIKcEET0_
   fun:_ZN5boost7runtime11environment3varINS_9unit_test13output_formatEEENS1_8variableIT_EENS3_13basic_cstringIKcEE
   fun:_ZN5boost7runtime11environment3getINS_9unit_test13output_formatEEEvNS3_13basic_cstringIKcEERNS_8optionalIT_EE
   fun:_ZN5boost9unit_test14runtime_config12_GLOBAL__N_118retrieve_parameterINS0_13output_formatEEET_NS0_13basic_cstringIKcEERKNS_7runtime3cla6parserERKS5_SF_
   fun:_ZN5boost9unit_test14runtime_config4initERiPPc
   fun:_ZN5boost9unit_test9framework4initEPFPNS0_10test_suiteEiPPcEiS5_
   fun:_ZN5boost9unit_test14unit_test_mainEPFPNS0_10test_suiteEiPPcEiS4_
   fun:main
}
{
   <insert_a_suppression_name_here>
   Memcheck:Cond
   fun:__GI_strlen
   fun:getenv
   fun:_ZN5boost7runtime11environment13rt_env_detail12sys_read_varENS_9unit_test13basic_cstringIKcEE
   fun:_ZN5boost7runtime11environment13rt_env_detail12init_new_varINS_9unit_test9log_levelENS_3nfp15named_parameterIcNS6_10nfp_detail16no_params_type_tEcEEEERNS2_13variable_dataENS4_13basic_cstringIKcEET0_
   fun:_ZN5boost7runtime11environment3varINS_9unit_test9log_levelEEENS1_8variableIT_EENS3_13basic_cstringIKcEE
   fun:_ZN5boost7runtime11environment3getINS_9unit_test9log_levelEEEvNS3_13basic_cstringIKcEERNS_8optionalIT_EE
   fun:_ZN5boost9unit_test14runtime_config12_GLOBAL__N_118retrieve_parameterINS0_9log_levelEEET_NS0_13basic_cstringIKcEERKNS_7runtime3cla6parserERKS5_SF_
   fun:_ZN5boost9unit_test14runtime_config9log_levelEv
   fun:_ZN5boost9unit_test9framework4initEPFPNS0_10test_suiteEiPPcEiS5_
   fun:_ZN5boost9unit_test14unit_test_mainEPFPNS0_10test_suiteEiPPcEiS4_
   fun:main
}
{
   <insert_a_suppression_name_here>
   Memcheck:Addr8
   fun:__GI_strlen
   fun:getenv
   fun:_ZN5boost7runtime11environment13rt_env_detail12sys_read_varENS_9unit_test13basic_cstringIKcEE
   fun:_ZN5boost7runtime11environment13rt_env_detail12init_new_varINS_9unit_test9log_levelENS_3nfp15named_parameterIcNS6_10nfp_detail16no_params_type_tEcEEEERNS2_13variable_dataENS4_13basic_cstringIKcEET0_
   fun:_ZN5boost7runtime11environment3varINS_9unit_test9log_levelEEENS1_8variableIT_EENS3_13basic_cstringIKcEE
   fun:_ZN5boost7runtime11environment3getINS_9unit_test9log_levelEEEvNS3_13basic_cstringIKcEERNS_8optionalIT_EE
   fun:_ZN5boost9unit_test14runtime_config12_GLOBAL__N_118retrieve_parameterINS0_9log_levelEEET_NS0_13basic_cstringIKcEERKNS_7runtime3cla6parserERKS5_SF_
   fun:_ZN5boost9unit_test14runtime_config9log_levelEv
   fun:_ZN5boost9unit_test9framework4initEPFPNS0_10test_suiteEiPPcEiS5_
   fun:_ZN5boost9unit_test14unit_test_mainEPFPNS0_10test_suiteEiPPcEiS4_
   fun:main
}
{
   <insert_a_suppression_name_here>
   Memcheck:Cond
   fun:__GI_strlen
   fun:getenv
   fun:_ZN5boost7runtime11environment13rt_env_detail12sys_read_varENS_9unit_test13basic_cstringIKcEE
   fun:_ZN5boost7runtime11environment13rt_env_detail12init_new_varINS_9unit_test12report_levelENS_3nfp15named_parameterIcNS6_10nfp_detail16no_params_type_tEcEEEERNS2_13variable_dataENS4_13basic_cstringIKcEET0_
   fun:_ZN5boost7runtime11environment3varINS_9unit_test12report_levelEEENS1_8variableIT_EENS3_13basic_cstringIKcEE
   fun:_ZN5boost7runtime11environment3getINS_9unit_test12report_levelEEEvNS3_13basic_cstringIKcEERNS_8optionalIT_EE
   fun:_ZN5boost9unit_test14runtime_config12_GLOBAL__N_118retrieve_parameterINS0_12report_levelEEET_NS0_13basic_cstringIKcEERKNS_7runtime3cla6parserERKS5_SF_
   fun:_ZN5boost9unit_test14runtime_config12report_levelEv
   fun:_ZN5boost9unit_test9framework4initEPFPNS0_10test_suiteEiPPcEiS5_
   fun:_ZN5boost9unit_test14unit_test_mainEPFPNS0_10test_suiteEiPPcEiS4_
   fun:main
}
{
   <insert_a_suppression_name_here>
   Memcheck:Cond
   fun:__GI_strlen
   fun:getenv
   fun:_ZN5boost7runtime11environment13rt_env_detail12sys_read_varENS_9unit_test13basic_cstringIKcEE
   fun:_ZN5boost7runtime11environment13rt_env_detail12init_new_varIbNS_3nfp15named_parameterIcNS4_10nfp_detail16no_params_type_tEcEEEERNS2_13variable_dataENS_9unit_test13basic_cstringIKcEET0_
   fun:_ZN5boost7runtime11environment3varIbEENS1_8variableIT_EENS_9unit_test13basic_cstringIKcEE
   fun:_ZN5boost7runtime11environment3getIbEEvNS_9unit_test13basic_cstringIKcEERNS_8optionalIT_EE
   fun:_ZN5boost9unit_test14runtime_config12_GLOBAL__N_118retrieve_parameterIbEET_NS0_13basic_cstringIKcEERKNS_7runtime3cla6parserERKS4_SE_
   fun:_ZN5boost9unit_test14runtime_config13show_progressEv
   fun:_ZN5boost9unit_test9framework4initEPFPNS0_10test_suiteEiPPcEiS5_
   fun:_ZN5boost9unit_test14unit_test_mainEPFPNS0_10test_suiteEiPPcEiS4_
   fun:main
}
{
   <insert_a_suppression_name_here>
   Memcheck:Addr8
   fun:__GI_strlen
   fun:getenv
   fun:_ZN5boost7runtime11environment13rt_env_detail12sys_read_varENS_9unit_test13basic_cstringIKcEE
   fun:_ZN5boost7runtime11environment13rt_env_detail12init_new_varIbNS_3nfp15named_parameterIcNS4_10nfp_detail16no_params_type_tEcEEEERNS2_13variable_dataENS_9unit_test13basic_cstringIKcEET0_
   fun:_ZN5boost7runtime11environment3varIbEENS1_8variableIT_EENS_9unit_test13basic_cstringIKcEE
   fun:_ZN5boost7runtime11environment3getIbEEvNS_9unit_test13basic_cstringIKcEERNS_8optionalIT_EE
   fun:_ZN5boost9unit_test14runtime_config12_GLOBAL__N_118retrieve_parameterIbEET_NS0_13basic_cstringIKcEERKNS_7runtime3cla6parserERKS4_SE_
   fun:_ZN5boost9unit_test14runtime_config13show_progressEv
   fun:_ZN5boost9unit_test9framework4initEPFPNS0_10test_suiteEiPPcEiS5_
   fun:_ZN5boost9unit_test14unit_test_mainEPFPNS0_10test_suiteEiPPcEiS4_
   fun:main
}
{
   <insert_a_suppression_name_here>
   Memcheck:Cond
   fun:__GI_strlen
   fun:getenv
   fun:_ZN5boost7runtime11environment13rt_env_detail12sys_read_varENS_9unit_test13basic_cstringIKcEE
   fun:_ZN5boost7runtime11environment13rt_env_detail12init_new_varIlNS_3nfp15named_parameterIcNS4_10nfp_detail16no_params_type_tEcEEEERNS2_13variable_dataENS_9unit_test13basic_cstringIKcEET0_
   fun:_ZN5boost7runtime11environment3varIlEENS1_8variableIT_EENS_9unit_test13basic_cstringIKcEE
   fun:_ZN5boost7runtime11environment3getIlEEvNS_9unit_test13basic_cstringIKcEERNS_8optionalIT_EE
   fun:_ZN5boost9unit_test14runtime_config12_GLOBAL__N_118retrieve_parameterIlEET_NS0_13basic_cstringIKcEERKNS_7runtime3cla6parserERKS4_SE_
   fun:_ZN5boost9unit_test14runtime_config19detect_memory_leaksEv
   fun:_ZN5boost9unit_test9framework4initEPFPNS0_10test_suiteEiPPcEiS5_
   fun:_ZN5boost9unit_test14unit_test_mainEPFPNS0_10test_suiteEiPPcEiS4_
   fun:main
}
{
   <insert_a_suppression_name_here>
   Memcheck:Addr8
   fun:__GI_strlen
   fun:getenv
   fun:_ZN5boost7runtime11environment13rt_env_detail12sys_read_varENS_9unit_test13basic_cstringIKcEE
   fun:_ZN5boost7runtime11environment13rt_env_detail12init_new_varIlNS_3nfp15named_parameterIcNS4_10nfp_detail16no_params_type_tEcEEEERNS2_13variable_dataENS_9unit_test13basic_cstringIKcEET0_
   fun:_ZN5boost7runtime11environment3varIlEENS1_8variableIT_EENS_9unit_test13basic_cstringIKcEE
   fun:_ZN5boost7runtime11environment3getIlEEvNS_9unit_test13basic_cstringIKcEERNS_8optionalIT_EE
   fun:_ZN5boost9unit_test14runtime_config12_GLOBAL__N_118retrieve_parameterIlEET_NS0_13basic_cstringIKcEERKNS_7runtime3cla6parserERKS4_SE_
   fun:_ZN5boost9unit_test14runtime_config19detect_memory_leaksEv
   fun:_ZN5boost9unit_test9framework4initEPFPNS0_10test_suiteEiPPcEiS5_
   fun:_ZN5boost9unit_test14unit_test_mainEPFPNS0_10test_suiteEiPPcEiS4_
   fun:main
}
{
   <insert_a_suppression_name_here>
   Memcheck:Cond
   fun:__GI___rawmemchr
   fun:_IO_str_init_static_internal
   fun:vsscanf
   fun:sscanf
   fun:_ZN5boost5debug12_GLOBAL__N_112process_infoC1Ei
   fun:_ZN5boost5debug14under_debuggerEv
   fun:_ZN5boost17execution_monitor7executeERKNS_9unit_test9callback0IiEE
   fun:_ZN5boost9unit_test9framework4initEPFPNS0_10test_suiteEiPPcEiS5_
   fun:_ZN5boost9unit_test14unit_test_mainEPFPNS0_10test_suiteEiPPcEiS4_
   fun:main
}
{
   <insert_a_suppression_name_here>
   Memcheck:Cond
   fun:_IO_vfscanf
   fun:vsscanf
   fun:sscanf
   fun:_ZN5boost5debug12_GLOBAL__N_112process_infoC1Ei
   fun:_ZN5boost5debug14under_debuggerEv
   fun:_ZN5boost17execution_monitor7executeERKNS_9unit_test9callback0IiEE
   fun:_ZN5boost9unit_test9framework4initEPFPNS0_10test_suiteEiPPcEiS5_
   fun:_ZN5boost9unit_test14unit_test_mainEPFPNS0_10test_suiteEiPPcEiS4_
   fun:main
}
{
   <insert_a_suppression_name_here>
   Memcheck:Cond
   fun:__GI_strlen
   fun:getenv
   fun:_ZN5boost7runtime11environment13rt_env_detail12sys_read_varENS_9unit_test13basic_cstringIKcEE
   fun:_ZN5boost7runtime11environment13rt_env_detail12init_new_varISsNS_3nfp15named_parameterIcNS4_10nfp_detail16no_params_type_tEcEEEERNS2_13variable_dataENS_9unit_test13basic_cstringIKcEET0_
   fun:_ZN5boost7runtime11environment3varISsEENS1_8variableIT_EENS_9unit_test13basic_cstringIKcEE
   fun:_ZN5boost7runtime11environment3getISsEEvNS_9unit_test13basic_cstringIKcEERNS_8optionalIT_EE
   fun:_ZN5boost9unit_test14runtime_config12_GLOBAL__N_118retrieve_parameterISsEET_NS0_13basic_cstringIKcEERKNS_7runtime3cla6parserERKS4_SE_
   fun:_ZN5boost9unit_test14runtime_config11test_to_runEv
   fun:_ZN5boost9unit_test14unit_test_mainEPFPNS0_10test_suiteEiPPcEiS4_
   fun:main
}
{
   <insert_a_suppression_name_here>
   Memcheck:Addr8
   fun:__GI_strlen
   fun:getenv
   fun:_ZN5boost7runtime11environment13rt_env_detail12sys_read_varENS_9unit_test13basic_cstringIKcEE
   fun:_ZN5boost7runtime11environment13rt_env_detail12init_new_varISsNS_3nfp15named_parameterIcNS4_10nfp_detail16no_params_type_tEcEEEERNS2_13variable_dataENS_9unit_test13basic_cstringIKcEET0_
   fun:_ZN5boost7runtime11environment3varISsEENS1_8variableIT_EENS_9unit_test13basic_cstringIKcEE
   fun:_ZN5boost7runtime11environment3getISsEEvNS_9unit_test13basic_cstringIKcEERNS_8optionalIT_EE
   fun:_ZN5boost9unit_test14runtime_config12_GLOBAL__N_118retrieve_parameterISsEET_NS0_13basic_cstringIKcEERKNS_7runtime3cla6parserERKS4_SE_
   fun:_ZN5boost9unit_test14runtime_config11test_to_runEv
   fun:_ZN5boost9unit_test14unit_test_mainEPFPNS0_10test_suiteEiPPcEiS4_
   fun:main
}
{
   <insert_a_suppression_name_here>
   Memcheck:Cond
   fun:__GI_strlen
   fun:getenv
   fun:_ZN5boost7runtime11environment13rt_env_detail12sys_read_varENS_9unit_test13basic_cstringIKcEE
   fun:_ZN5boost7runtime11environment13rt_env_detail12init_new_varIiNS_3nfp15named_parameterIcNS4_10nfp_detail16no_params_type_tEcEEEERNS2_13variable_dataENS_9unit_test13basic_cstringIKcEET0_
   fun:_ZN5boost7runtime11environment3varIiEENS1_8variableIT_EENS_9unit_test13basic_cstringIKcEE
   fun:_ZN5boost7runtime11environment3getIiEEvNS_9unit_test13basic_cstringIKcEERNS_8optionalIT_EE
   fun:_ZN5boost9unit_test14runtime_config12_GLOBAL__N_118retrieve_parameterIiEET_NS0_13basic_cstringIKcEERKNS_7runtime3cla6parserERKS4_SE_
   fun:_ZN5boost9unit_test14runtime_config11random_seedEv
   fun:_ZN5boost9unit_test18traverse_test_treeERKNS0_10test_suiteERNS0_17test_tree_visitorE
   fun:_ZN5boost9unit_test18traverse_test_treeEmRNS0_17test_tree_visitorE
   fun:_ZN5boost9unit_test9framework3runEmb
   fun:_ZN5boost9unit_test14unit_test_mainEPFPNS0_10test_suiteEiPPcEiS4_
   fun:main
}
{
   <insert_a_suppression_name_here>
   Memcheck:Addr8
   fun:__GI_strlen
   fun:getenv
   fun:_ZN5boost7runtime11environment13rt_env_detail12sys_read_varENS_9unit_test13basic_cstringIKcEE
   fun:_ZN5boost7runtime11environment13rt_env_detail12init_new_varIiNS_3nfp15named_parameterIcNS4_10nfp_detail16no_params_type_tEcEEEERNS2_13variable_dataENS_9unit_test13basic_cstringIKcEET0_
   fun:_ZN5boost7runtime11environment3varIiEENS1_8variableIT_EENS_9unit_test13basic_cstringIKcEE
   fun:_ZN5boost7runtime11environment3getIiEEvNS_9unit_test13basic_cstringIKcEERNS_8optionalIT_EE
   fun:_ZN5boost9unit_test14runtime_config12_GLOBAL__N_118retrieve_parameterIiEET_NS0_13basic_cstringIKcEERKNS_7runtime3cla6parserERKS4_SE_
   fun:_ZN5boost9unit_test14runtime_config11random_seedEv
   fun:_ZN5boost9unit_test18traverse_test_treeERKNS0_10test_suiteERNS0_17test_tree_visitorE
   fun:_ZN5boost9unit_test18traverse_test_treeEmRNS0_17test_tree_visitorE
   fun:_ZN5boost9unit_test9framework3runEmb
   fun:_ZN5boost9unit_test14unit_test_mainEPFPNS0_10test_suiteEiPPcEiS4_
   fun:main
}
{
   <insert_a_suppression_name_here>
   Memcheck:Addr8
   fun:__GI_strlen
   fun:getenv
   fun:_ZN5boost7runtime11environment13rt_env_detail12sys_read_varENS_9unit_test13basic_cstringIKcEE
   fun:_ZN5boost7runtime11environment13rt_env_detail12init_new_varIbNS_3nfp15named_parameterIcNS4_10nfp_detail16no_params_type_tEcEEEERNS2_13variable_dataENS_9unit_test13basic_cstringIKcEET0_
   fun:_ZN5boost7runtime11environment3varIbEENS1_8variableIT_EENS_9unit_test13basic_cstringIKcEE
   fun:_ZN5boost7runtime11environment3getIbEEvNS_9unit_test13basic_cstringIKcEERNS_8optionalIT_EE
   fun:_ZN5boost9unit_test14runtime_config12_GLOBAL__N_118retrieve_parameterIbEET_NS0_13basic_cstringIKcEERKNS_7runtime3cla6parserERKS4_SE_
   fun:_ZN5boost9unit_test14runtime_config15show_build_infoEv
   fun:_ZN5boost9unit_test15unit_test_log_t10test_startEm
   fun:_ZN5boost9unit_test9ut_detail17test_start_callerclEv
   fun:_ZN5boost9unit_test9ut_detail7invokerIiE6invokeINS1_17test_start_callerEEEiRT_
   fun:_ZN5boost9unit_test9ut_detail16callback0_impl_tIiNS1_17test_start_callerEE6invokeEv
   fun:_ZNK5boost9unit_test9callback0IiEclEv
   fun:_ZN5boost6detail9do_invokeINS_10scoped_ptrINS0_24translate_exception_baseEEENS_9unit_test9callback0IiEEEEiRKT_RKT0_
   fun:_ZN5boost17execution_monitor13catch_signalsERKNS_9unit_test9callback0IiEE
   fun:_ZN5boost17execution_monitor7executeERKNS_9unit_test9callback0IiEE
   fun:_ZN5boost9unit_test9framework3runEmb
   fun:_ZN5boost9unit_test14unit_test_mainEPFPNS0_10test_suiteEiPPcEiS4_
   fun:main
}
